; Function Attrs: nounwind uwtable
define internal fastcc void @spa_pod_builder_raw_padded(ptr nocapture noundef %0, ptr noundef readonly %1, i32 noundef %2) unnamed_addr #3 {
  %4 = alloca i64, align 8
  %5 = getelementptr inbounds i8, ptr %0, i64 16
  %6 = load i32, ptr %5, align 8
  %7 = add i32 %6, %2
  %8 = getelementptr inbounds i8, ptr %0, i64 8
  %9 = load i32, ptr %8, align 8
  %10 = icmp ugt i32 %7, %9
  br i1 %10, label %11, label %.critedge.i

11:                                               ; preds = %3
  %.not.i = icmp ugt i32 %6, %9
  br i1 %.not.i, label %.critedge.thread.i, label %12

12:                                               ; preds = %11
  %13 = getelementptr inbounds i8, ptr %0, i64 32
  %14 = load ptr, ptr %13, align 8
  %.not33.i = icmp eq ptr %14, null
  br i1 %.not33.i, label %.critedge.thread.i, label %15

15:                                               ; preds = %12
  %16 = getelementptr inbounds i8, ptr %14, i64 8
  %17 = load ptr, ptr %16, align 8
  %.not38.i = icmp eq ptr %17, null
  br i1 %.not38.i, label %.critedge.thread.i, label %18

18:                                               ; preds = %15
  %19 = getelementptr inbounds i8, ptr %0, i64 40
  %20 = load ptr, ptr %19, align 8
  %21 = tail call i32 %17(ptr noundef %20, i32 noundef %7) #15
  %22 = icmp eq i32 %21, 0
  br label %.critedge.i

.critedge.i:                                      ; preds = %18, %3
  %.1.i = phi i1 [ true, %3 ], [ %22, %18 ]
  %23 = icmp ne ptr %1, null
  %or.cond.i = and i1 %23, %.1.i
  br i1 %or.cond.i, label %24, label %.critedge.thread.i

24:                                               ; preds = %.critedge.i
  %25 = load ptr, ptr %0, align 8
  %26 = ptrtoint ptr %25 to i64
  %27 = zext i32 %6 to i64
  %28 = add i64 %26, %27
  %29 = inttoptr i64 %28 to ptr
  %30 = zext i32 %2 to i64
  tail call void @llvm.memcpy.p0.p0.i64(ptr align 1 %29, ptr nonnull readonly align 1 %1, i64 %30, i1 false)
  br label %.critedge.thread.i

.critedge.thread.i:                               ; preds = %24, %.critedge.i, %15, %12, %11
  %31 = load i32, ptr %5, align 8
  %32 = add i32 %31, %2
  store i32 %32, ptr %5, align 8
  %33 = getelementptr inbounds i8, ptr %0, i64 24
  %.02839.i = load ptr, ptr %33, align 8
  %.not3440.i = icmp eq ptr %.02839.i, null
  br i1 %.not3440.i, label %spa_pod_builder_raw.exit, label %.lr.ph.i

.lr.ph.i:                                         ; preds = %.critedge.thread.i, %.lr.ph.i
  %.02841.i = phi ptr [ %.028.i, %.lr.ph.i ], [ %.02839.i, %.critedge.thread.i ]
  %34 = load i32, ptr %.02841.i, align 8
  %35 = add i32 %34, %2
  store i32 %35, ptr %.02841.i, align 8
  %36 = getelementptr inbounds i8, ptr %.02841.i, i64 8
  %.028.i = load ptr, ptr %36, align 8
  %.not34.i = icmp eq ptr %.028.i, null
  br i1 %.not34.i, label %spa_pod_builder_raw.exit, label %.lr.ph.i, !llvm.loop !19

spa_pod_builder_raw.exit:                         ; preds = %.lr.ph.i, %.critedge.thread.i
  call void @llvm.lifetime.start.p0(i64 8, ptr nonnull %4)
  store i64 0, ptr %4, align 8
  %37 = add i32 %2, -1
  %38 = or i32 %37, 7
  %39 = add i32 %38, 1
  %.not.i7 = icmp eq i32 %39, %2
  br i1 %.not.i7, label %spa_pod_builder_pad.exit.thread, label %40

spa_pod_builder_pad.exit.thread:                  ; preds = %spa_pod_builder_raw.exit
  call void @llvm.lifetime.end.p0(i64 8, ptr nonnull %4)
  br label %68

40:                                               ; preds = %spa_pod_builder_raw.exit
  %41 = sub i32 %39, %2
  %42 = load i32, ptr %5, align 8
  %43 = add i32 %42, %41
  %44 = load i32, ptr %8, align 8
  %45 = icmp ugt i32 %43, %44
  br i1 %45, label %46, label %.critedge.i.thread.i

46:                                               ; preds = %40
  %.not.i.i = icmp ugt i32 %42, %44
  br i1 %.not.i.i, label %.critedge.thread.i.i, label %47

47:                                               ; preds = %46
  %48 = getelementptr inbounds i8, ptr %0, i64 32
  %49 = load ptr, ptr %48, align 8
  %.not33.i.i = icmp eq ptr %49, null
  br i1 %.not33.i.i, label %.critedge.thread.i.i, label %50

50:                                               ; preds = %47
  %51 = getelementptr inbounds i8, ptr %49, i64 8
  %52 = load ptr, ptr %51, align 8
  %.not38.i.i = icmp eq ptr %52, null
  br i1 %.not38.i.i, label %.critedge.thread.i.i, label %.critedge.i.i

.critedge.i.i:                                    ; preds = %50
  %53 = getelementptr inbounds i8, ptr %0, i64 40
  %54 = load ptr, ptr %53, align 8
  %55 = tail call i32 %52(ptr noundef %54, i32 noundef %43) #15
  %56 = icmp eq i32 %55, 0
  br i1 %56, label %.critedge.i.thread.i, label %.critedge.thread.i.i

.critedge.i.thread.i:                             ; preds = %.critedge.i.i, %40
  %57 = load ptr, ptr %0, align 8
  %58 = ptrtoint ptr %57 to i64
  %59 = zext i32 %42 to i64
  %60 = add i64 %58, %59
  %61 = inttoptr i64 %60 to ptr
  %62 = zext i32 %41 to i64
  call void @llvm.memcpy.p0.p0.i64(ptr align 1 %61, ptr nonnull readonly align 8 %4, i64 %62, i1 false)
  br label %.critedge.thread.i.i

.critedge.thread.i.i:                             ; preds = %.critedge.i.thread.i, %.critedge.i.i, %50, %47, %46
  %63 = load i32, ptr %5, align 8
  %64 = add i32 %63, %41
  store i32 %64, ptr %5, align 8
  %.02839.i.i = load ptr, ptr %33, align 8
  %.not3440.i.i = icmp eq ptr %.02839.i.i, null
  br i1 %.not3440.i.i, label %spa_pod_builder_pad.exit, label %.lr.ph.i.i

.lr.ph.i.i:                                       ; preds = %.critedge.thread.i.i, %.lr.ph.i.i
  %.02841.i.i = phi ptr [ %.028.i.i, %.lr.ph.i.i ], [ %.02839.i.i, %.critedge.thread.i.i ]
  %65 = load i32, ptr %.02841.i.i, align 8
  %66 = add i32 %65, %41
  store i32 %66, ptr %.02841.i.i, align 8
  %67 = getelementptr inbounds i8, ptr %.02841.i.i, i64 8
  %.028.i.i = load ptr, ptr %67, align 8
  %.not34.i.i = icmp eq ptr %.028.i.i, null
  br i1 %.not34.i.i, label %spa_pod_builder_pad.exit, label %.lr.ph.i.i, !llvm.loop !19

spa_pod_builder_pad.exit:                         ; preds = %.lr.ph.i.i, %.critedge.thread.i.i
  call void @llvm.lifetime.end.p0(i64 8, ptr nonnull %4)
  br label %68

68:                                               ; preds = %spa_pod_builder_pad.exit, %spa_pod_builder_pad.exit.thread
  ret void
}